target datalayout = "e-m:e-p270:32:32-p271:32:32-p272:64:64-i64:64-i128:128-f80:128-n8:16:32:64-S128"
target triple = "x86_64-pc-linux-gnu"

%class.RandomNumber = type { ptr, ptr, %"class.std::map", i64 }
%"class.std::map" = type { %"class.std::_Rb_tree" }
%"class.std::_Rb_tree" = type { %"struct.std::_Rb_tree<RNDNUM_GENERATOR, std::pair<const RNDNUM_GENERATOR, AbsRndNumGenerator *>, std::_Select1st<std::pair<const RNDNUM_GENERATOR, AbsRndNumGenerator *>>, std::less<RNDNUM_GENERATOR>>::_Rb_tree_impl" }
%"struct.std::_Rb_tree<RNDNUM_GENERATOR, std::pair<const RNDNUM_GENERATOR, AbsRndNumGenerator *>, std::_Select1st<std::pair<const RNDNUM_GENERATOR, AbsRndNumGenerator *>>, std::less<RNDNUM_GENERATOR>>::_Rb_tree_impl" = type { %"struct.std::_Rb_tree_key_compare", %"struct.std::_Rb_tree_header" }
%"struct.std::_Rb_tree_key_compare" = type { %"struct.std::less" }
%"struct.std::less" = type { i8 }
%"struct.std::_Rb_tree_header" = type { %"struct.std::_Rb_tree_node_base", i64 }
%"struct.std::_Rb_tree_node_base" = type { i32, ptr, ptr, ptr }

@_ZN12RandomNumber9instance_E = dso_local global ptr null, align 8

; Function Attrs: mustprogress nounwind uwtable
define linkonce_odr dso_local noundef i32 @_ZN18AbsRndNumGenerator5countEv() #5 comdat align 2 {
  ret i32 2
}

; Function Attrs: mustprogress uwtable
define dso_local noundef i32 @_ZN12RandomNumber21SwitchRndNumGeneratorE16RNDNUM_GENERATOR(i32 noundef %0) #4 align 2 {
  %2 = alloca i32, align 4
  %3 = alloca i32, align 4
  %4 = alloca ptr, align 8
  %5 = alloca i32, align 4
  store i32 %0, ptr %2, align 4
  %6 = call noundef i32 @_ZN18AbsRndNumGenerator5countEv()
  store i32 %6, ptr %3, align 4
  %7 = load ptr, ptr @_ZN12RandomNumber9instance_E, align 8
  %8 = getelementptr inbounds %class.RandomNumber, ptr %7, i32 0, i32 2
  %9 = call noundef nonnull align 8 dereferenceable(8) ptr @_ZNSt3mapI16RNDNUM_GENERATORP18AbsRndNumGeneratorSt4lessIS0_ESaISt4pairIKS0_S2_EEEixERS6_(ptr noundef nonnull align 8 dereferenceable(48) %8, ptr noundef nonnull align 4 dereferenceable(4) %2)
  %10 = load ptr, ptr %9, align 8
  store ptr %10, ptr %4, align 8
  %11 = load ptr, ptr %4, align 8
  %12 = icmp eq ptr %11, null
  br i1 %12, label %13, label %23

13:                                               ; preds = %1
  %14 = load i32, ptr %2, align 4
  %15 = load ptr, ptr @_ZN12RandomNumber9instance_E, align 8
  %16 = getelementptr inbounds %class.RandomNumber, ptr %15, i32 0, i32 3
  %17 = load i64, ptr %16, align 8
  %18 = call noundef ptr @_ZN18AbsRndNumGenerator21make_rndnum_generatorE16RNDNUM_GENERATORm(i32 noundef %14, i64 noundef %17)
  store ptr %18, ptr %4, align 8
  %19 = load ptr, ptr %4, align 8
  %20 = load ptr, ptr @_ZN12RandomNumber9instance_E, align 8
  %21 = getelementptr inbounds %class.RandomNumber, ptr %20, i32 0, i32 2
  %22 = call noundef nonnull align 8 dereferenceable(8) ptr @_ZNSt3mapI16RNDNUM_GENERATORP18AbsRndNumGeneratorSt4lessIS0_ESaISt4pairIKS0_S2_EEEixERS6_(ptr noundef nonnull align 8 dereferenceable(48) %21, ptr noundef nonnull align 4 dereferenceable(4) %2)
  store ptr %19, ptr %22, align 8
  br label %23

23:                                               ; preds = %13, %1
  %24 = load ptr, ptr @_ZN12RandomNumber9instance_E, align 8
  %25 = getelementptr inbounds %class.RandomNumber, ptr %24, i32 0, i32 1
  %26 = load ptr, ptr %25, align 8
  %27 = load ptr, ptr %26, align 8
  %28 = getelementptr inbounds ptr, ptr %27, i64 7
  %29 = load ptr, ptr %28, align 8
  %30 = call noundef i32 %29(ptr noundef nonnull align 8 dereferenceable(8) %26)
  store i32 %30, ptr %5, align 4
  %31 = load ptr, ptr %4, align 8
  %32 = load ptr, ptr @_ZN12RandomNumber9instance_E, align 8
  %33 = getelementptr inbounds %class.RandomNumber, ptr %32, i32 0, i32 1
  store ptr %31, ptr %33, align 8
  %34 = load i32, ptr %5, align 4
  ret i32 %34
}