; Function Attrs: mustprogress uwtable
define dso_local noundef i32 @_ZN12RandomNumber21SwitchRndNumGeneratorE16RNDNUM_GENERATOR(i32 noundef %0) local_unnamed_addr #3 align 2 {
  %2 = alloca i32, align 4
  store i32 %0, ptr %2, align 4
  %3 = load ptr, ptr @_ZN12RandomNumber9instance_E, align 8
  %4 = getelementptr inbounds i8, ptr %3, i64 16
  %5 = call noundef nonnull align 8 dereferenceable(8) ptr @_ZNSt3mapI16RNDNUM_GENERATORP18AbsRndNumGeneratorSt4lessIS0_ESaISt4pairIKS0_S2_EEEixERS6_(ptr noundef nonnull align 8 dereferenceable(48) %4, ptr noundef nonnull align 4 dereferenceable(4) %2)
  %6 = load ptr, ptr %5, align 8
  %7 = icmp eq ptr %6, null
  br i1 %7, label %8, label %17

8:                                                ; preds = %1
  %9 = load i32, ptr %2, align 4
  %10 = load ptr, ptr @_ZN12RandomNumber9instance_E, align 8
  %11 = getelementptr inbounds i8, ptr %10, i64 64
  %12 = load i64, ptr %11, align 8
  %13 = call noundef ptr @_ZN18AbsRndNumGenerator21make_rndnum_generatorE16RNDNUM_GENERATORm(i32 noundef %9, i64 noundef %12)
  %14 = load ptr, ptr @_ZN12RandomNumber9instance_E, align 8
  %15 = getelementptr inbounds i8, ptr %14, i64 16
  %16 = call noundef nonnull align 8 dereferenceable(8) ptr @_ZNSt3mapI16RNDNUM_GENERATORP18AbsRndNumGeneratorSt4lessIS0_ESaISt4pairIKS0_S2_EEEixERS6_(ptr noundef nonnull align 8 dereferenceable(48) %15, ptr noundef nonnull align 4 dereferenceable(4) %2)
  store ptr %13, ptr %16, align 8
  br label %17

17:                                               ; preds = %8, %1
  %.0 = phi ptr [ %13, %8 ], [ %6, %1 ]
  %18 = load ptr, ptr @_ZN12RandomNumber9instance_E, align 8
  %19 = getelementptr inbounds i8, ptr %18, i64 8
  %20 = load ptr, ptr %19, align 8
  %21 = load ptr, ptr %20, align 8
  %22 = getelementptr inbounds i8, ptr %21, i64 56
  %23 = load ptr, ptr %22, align 8
  %24 = call noundef i32 %23(ptr noundef nonnull align 8 dereferenceable(8) %20)
  %25 = load ptr, ptr @_ZN12RandomNumber9instance_E, align 8
  %26 = getelementptr inbounds i8, ptr %25, i64 8
  store ptr %.0, ptr %26, align 8
  ret i32 %24
}